; ModuleID = '54/1084.c'
source_filename = "54/1084.c"
target datalayout = "e-m:e-p270:32:32-p271:32:32-p272:64:64-i64:64-f80:128-n8:16:32:64-S128"
target triple = "x86_64-pc-linux-gnu"

@.str = private unnamed_addr constant [6 x i8] c"%d %d\00", align 1
@.str.1 = private unnamed_addr constant [4 x i8] c"%d\0A\00", align 1

; Function Attrs: noinline nounwind uwtable
define dso_local i32 @jisuan(i32 %0, i32 %1) #0 {
  %3 = alloca i32, align 4
  %4 = alloca i32, align 4
  %5 = alloca i32, align 4
  %6 = alloca i32, align 4
  %7 = alloca i32, align 4
  store i32 %0, i32* %3, align 4
  store i32 %1, i32* %4, align 4
  store i32 1, i32* %5, align 4
  store i32 1, i32* %6, align 4
  br label %8

8:                                                ; preds = %2, %40
  store i32 0, i32* %7, align 4
  br label %9

9:                                                ; preds = %37, %8
  %10 = load i32, i32* %6, align 4
  %11 = load i32, i32* %3, align 4
  %12 = srem i32 %10, %11
  %13 = load i32, i32* %4, align 4
  %14 = icmp eq i32 %12, %13
  br i1 %14, label %15, label %27

15:                                               ; preds = %9
  %16 = load i32, i32* %6, align 4
  %17 = load i32, i32* %3, align 4
  %18 = sdiv i32 %16, %17
  %19 = icmp sgt i32 %18, 0
  br i1 %19, label %20, label %27

20:                                               ; preds = %15
  %21 = load i32, i32* %6, align 4
  %22 = load i32, i32* %3, align 4
  %23 = sdiv i32 %21, %22
  %24 = load i32, i32* %3, align 4
  %25 = sub nsw i32 %24, 1
  %26 = mul nsw i32 %23, %25
  store i32 %26, i32* %6, align 4
  br label %28

27:                                               ; preds = %15, %9
  br label %40

28:                                               ; preds = %20
  %29 = load i32, i32* %7, align 4
  %30 = load i32, i32* %3, align 4
  %31 = sub nsw i32 %30, 1
  %32 = icmp eq i32 %29, %31
  br i1 %32, label %33, label %36

33:                                               ; preds = %28
  %34 = load i32, i32* %5, align 4
  %35 = sub nsw i32 %34, 1
  ret i32 %35

36:                                               ; preds = %28
  br label %37

37:                                               ; preds = %36
  %38 = load i32, i32* %7, align 4
  %39 = add nsw i32 %38, 1
  store i32 %39, i32* %7, align 4
  br label %9

40:                                               ; preds = %27
  %41 = load i32, i32* %5, align 4
  %42 = add nsw i32 %41, 1
  store i32 %42, i32* %5, align 4
  store i32 %41, i32* %6, align 4
  br label %8
}

; Function Attrs: noinline nounwind uwtable
define dso_local i32 @main(i32 %0, i8** %1) #0 {
  %3 = alloca i32, align 4
  %4 = alloca i32, align 4
  %5 = alloca i8**, align 8
  %6 = alloca i32, align 4
  %7 = alloca i32, align 4
  %8 = alloca i32, align 4
  store i32 0, i32* %3, align 4
  store i32 %0, i32* %4, align 4
  store i8** %1, i8*** %5, align 8
  %9 = call i32 (i8*, ...) @__isoc99_scanf(i8* getelementptr inbounds ([6 x i8], [6 x i8]* @.str, i64 0, i64 0), i32* %6, i32* %7)
  %10 = load i32, i32* %6, align 4
  %11 = load i32, i32* %7, align 4
  %12 = call i32 @jisuan(i32 %10, i32 %11)
  store i32 %12, i32* %8, align 4
  %13 = load i32, i32* %8, align 4
  %14 = call i32 (i8*, ...) @printf(i8* getelementptr inbounds ([4 x i8], [4 x i8]* @.str.1, i64 0, i64 0), i32 %13)
  ret i32 0
}

declare dso_local i32 @__isoc99_scanf(i8*, ...) #1

declare dso_local i32 @printf(i8*, ...) #1


!llvm.module.flags = !{!0}
!llvm.ident = !{!1}

!0 = !{i32 1, !"wchar_size", i32 4}
!1 = !{!"clang version 10.0.0-4ubuntu1 "}
